target datalayout = "e-m:e-p270:32:32-p271:32:32-p272:64:64-i64:64-i128:128-f80:128-n8:16:32:64-S128"
target triple = "x86_64-pc-linux-gnu"

%struct._object = type { i64, ptr }
%"struct.nanobind::detail::nb_inst" = type { %struct._object, i32, i32 }

@PyExc_RuntimeWarning = external global ptr, align 8
@.str.19 = private unnamed_addr constant [136 x i8] c"The resulting data structure would have multiple std::unique_ptrs, each thinking that they own the same instance, which is not allowed.\00", align 1
@.str.35 = private unnamed_addr constant [119 x i8] c"nanobind::detail::nb_relinquish_ownership(): could not transfer ownership of a Python instance of type '%U' to C++. %s\00", align 1

; Function Attrs: inlinehint mustprogress uwtable
define internal void @_ZL10_Py_DECREFP7_object(ptr noundef %0) #10 {
  %2 = alloca ptr, align 8
  store ptr %0, ptr %2, align 8
  %3 = load ptr, ptr %2, align 8
  %4 = getelementptr inbounds nuw %struct._object, ptr %3, i32 0, i32 0
  %5 = load i64, ptr %4, align 8
  %6 = add nsw i64 %5, -1
  store i64 %6, ptr %4, align 8
  %7 = icmp ne i64 %6, 0
  br i1 %7, label %8, label %9

8:                                                ; preds = %1
  br label %11

9:                                                ; preds = %1
  %10 = load ptr, ptr %2, align 8
  call void @_Py_Dealloc(ptr noundef %10)
  br label %11

11:                                               ; preds = %9, %8
  ret void
}

; Function Attrs: mustprogress nounwind uwtable
define noundef ptr @_ZN8nanobind6detail12nb_inst_nameEP7_object(ptr noundef %0) #6 {
  %2 = alloca ptr, align 8
  store ptr %0, ptr %2, align 8
  %3 = load ptr, ptr %2, align 8
  %4 = getelementptr inbounds nuw %struct._object, ptr %3, i32 0, i32 1
  %5 = load ptr, ptr %4, align 8
  %6 = call noundef ptr @_ZN8nanobind6detail12nb_type_nameEP7_object(ptr noundef %5) #20
  ret ptr %6
}

; Function Attrs: mustprogress nounwind uwtable
define internal void @_ZN8nanobind6detailL22warn_relinquish_failedEPKcP7_object(ptr noundef %0, ptr noundef %1) #6 personality ptr @__gxx_personality_v0 {
  %3 = alloca ptr, align 8
  %4 = alloca ptr, align 8
  %5 = alloca ptr, align 8
  %6 = alloca i32, align 4
  store ptr %0, ptr %3, align 8
  store ptr %1, ptr %4, align 8
  call void @llvm.lifetime.start.p0(i64 8, ptr %5) #20
  %7 = load ptr, ptr %4, align 8
  %8 = call noundef ptr @_ZN8nanobind6detail12nb_inst_nameEP7_object(ptr noundef %7) #20
  store ptr %8, ptr %5, align 8
  call void @llvm.lifetime.start.p0(i64 4, ptr %6) #20
  %9 = load ptr, ptr @PyExc_RuntimeWarning, align 8
  %10 = load ptr, ptr %5, align 8
  %11 = load ptr, ptr %3, align 8
  %12 = invoke i32 (ptr, i64, ptr, ...) @PyErr_WarnFormat(ptr noundef %9, i64 noundef 1, ptr noundef @.str.35, ptr noundef %10, ptr noundef %11)
          to label %13 unwind label %22

13:                                               ; preds = %2
  store i32 %12, ptr %6, align 4
  %14 = load i32, ptr %6, align 4
  %15 = icmp ne i32 %14, 0
  br i1 %15, label %16, label %19

16:                                               ; preds = %13
  %17 = load ptr, ptr %4, align 8
  invoke void @PyErr_WriteUnraisable(ptr noundef %17)
          to label %18 unwind label %22

18:                                               ; preds = %16
  br label %19

19:                                               ; preds = %18, %13
  %20 = load ptr, ptr %5, align 8
  invoke void @_ZL10_Py_DECREFP7_object(ptr noundef %20)
          to label %21 unwind label %22

21:                                               ; preds = %19
  call void @llvm.lifetime.end.p0(i64 4, ptr %6) #20
  call void @llvm.lifetime.end.p0(i64 8, ptr %5) #20
  ret void

22:                                               ; preds = %19, %16, %2
  %23 = landingpad { ptr, i32 }
          catch ptr null
  %24 = extractvalue { ptr, i32 } %23, 0
  call void @__clang_call_terminate(ptr %24) #22
  unreachable
}

; Function Attrs: mustprogress nounwind uwtable
define noundef zeroext i1 @_ZN8nanobind6detail28nb_type_relinquish_ownershipEP7_objectb(ptr noundef %0, i1 noundef zeroext %1) #6 {
  %3 = alloca i1, align 1
  %4 = alloca ptr, align 8
  %5 = alloca i8, align 1
  %6 = alloca ptr, align 8
  %7 = alloca i32, align 4
  store ptr %0, ptr %4, align 8
  %8 = zext i1 %1 to i8
  store i8 %8, ptr %5, align 1
  call void @llvm.lifetime.start.p0(i64 8, ptr %6) #20
  %9 = load ptr, ptr %4, align 8
  store ptr %9, ptr %6, align 8
  %10 = load ptr, ptr %6, align 8
  %11 = getelementptr inbounds nuw %"struct.nanobind::detail::nb_inst", ptr %10, i32 0, i32 2
  %12 = load i32, ptr %11, align 4
  %13 = and i32 %12, 3
  %14 = icmp ne i32 %13, 2
  br i1 %14, label %15, label %17

15:                                               ; preds = %2
  %16 = load ptr, ptr %4, align 8
  call void @_ZN8nanobind6detailL22warn_relinquish_failedEPKcP7_object(ptr noundef @.str.19, ptr noundef %16) #20
  store i1 false, ptr %3, align 1
  store i32 1, ptr %7, align 4
  br label %60

17:                                               ; preds = %2
  %18 = load i8, ptr %5, align 1, !range !3, !noundef !4
  %19 = trunc i8 %18 to i1
  br i1 %19, label %20, label %54

20:                                               ; preds = %17
  %21 = load ptr, ptr %6, align 8
  %22 = getelementptr inbounds nuw %"struct.nanobind::detail::nb_inst", ptr %21, i32 0, i32 2
  %23 = load i32, ptr %22, align 4
  %24 = lshr i32 %23, 5
  %25 = and i32 %24, 1
  %26 = icmp ne i32 %25, 0
  br i1 %26, label %27, label %41

27:                                               ; preds = %20
  %28 = load ptr, ptr %6, align 8
  %29 = getelementptr inbounds nuw %"struct.nanobind::detail::nb_inst", ptr %28, i32 0, i32 2
  %30 = load i32, ptr %29, align 4
  %31 = lshr i32 %30, 4
  %32 = and i32 %31, 1
  %33 = icmp ne i32 %32, 0
  br i1 %33, label %34, label %41

34:                                               ; preds = %27
  %35 = load ptr, ptr %6, align 8
  %36 = getelementptr inbounds nuw %"struct.nanobind::detail::nb_inst", ptr %35, i32 0, i32 2
  %37 = load i32, ptr %36, align 4
  %38 = lshr i32 %37, 3
  %39 = and i32 %38, 1
  %40 = icmp ne i32 %39, 0
  br i1 %40, label %41, label %43

41:                                               ; preds = %34, %27, %20
  %42 = load ptr, ptr %4, align 8
  call void @_ZN8nanobind6detailL22warn_relinquish_failedEPKcP7_object(ptr noundef @.str.20, ptr noundef %42) #20
  store i1 false, ptr %3, align 1
  store i32 1, ptr %7, align 4
  br label %60

43:                                               ; preds = %34
  %44 = load ptr, ptr %6, align 8
  %45 = getelementptr inbounds nuw %"struct.nanobind::detail::nb_inst", ptr %44, i32 0, i32 2
  %46 = load i32, ptr %45, align 4
  %47 = and i32 %46, -33
  %48 = or i32 %47, 0
  store i32 %48, ptr %45, align 4
  %49 = load ptr, ptr %6, align 8
  %50 = getelementptr inbounds nuw %"struct.nanobind::detail::nb_inst", ptr %49, i32 0, i32 2
  %51 = load i32, ptr %50, align 4
  %52 = and i32 %51, -17
  %53 = or i32 %52, 0
  store i32 %53, ptr %50, align 4
  br label %54

54:                                               ; preds = %43, %17
  %55 = load ptr, ptr %6, align 8
  %56 = getelementptr inbounds nuw %"struct.nanobind::detail::nb_inst", ptr %55, i32 0, i32 2
  %57 = load i32, ptr %56, align 4
  %58 = and i32 %57, -4
  %59 = or i32 %58, 1
  store i32 %59, ptr %56, align 4
  store i1 true, ptr %3, align 1
  store i32 1, ptr %7, align 4
  br label %60

60:                                               ; preds = %54, %41, %15
  call void @llvm.lifetime.end.p0(i64 8, ptr %6) #20
  %61 = load i1, ptr %3, align 1
  ret i1 %61
}