; Function Attrs: mustprogress nounwind uwtable
define noundef zeroext i1 @_ZN8nanobind6detail28nb_type_relinquish_ownershipEP7_objectb(ptr noundef %0, i1 noundef zeroext %1) local_unnamed_addr #5 personality ptr @__gxx_personality_v0 {
  %3 = getelementptr inbounds nuw i8, ptr %0, i64 20
  %4 = load i32, ptr %3, align 4
  %5 = and i32 %4, 3
  %.not = icmp eq i32 %5, 2
  br i1 %.not, label %21, label %6

6:                                                ; preds = %2
  %7 = getelementptr inbounds nuw i8, ptr %0, i64 8
  %8 = load ptr, ptr %7, align 8
  %9 = tail call noundef ptr @_ZN8nanobind6detail12nb_type_nameEP7_object(ptr noundef %8) #29
  %10 = load ptr, ptr @PyExc_RuntimeWarning, align 8
  %11 = invoke i32 (ptr, i64, ptr, ...) @PyErr_WarnFormat(ptr noundef %10, i64 noundef 1, ptr noundef nonnull @.str.35, ptr noundef %9, ptr noundef nonnull @.str.19)
          to label %12 unwind label %18

12:                                               ; preds = %6
  %.not.i = icmp eq i32 %11, 0
  br i1 %.not.i, label %14, label %13

13:                                               ; preds = %12
  invoke void @PyErr_WriteUnraisable(ptr noundef nonnull %0)
          to label %14 unwind label %18

14:                                               ; preds = %13, %12
  %15 = load i64, ptr %9, align 8
  %16 = add nsw i64 %15, -1
  store i64 %16, ptr %9, align 8
  %.not.i.i = icmp eq i64 %16, 0
  br i1 %.not.i.i, label %17, label %_ZN8nanobind6detailL22warn_relinquish_failedEPKcP7_object.exit

17:                                               ; preds = %14
  invoke void @_Py_Dealloc(ptr noundef nonnull %9)
          to label %_ZN8nanobind6detailL22warn_relinquish_failedEPKcP7_object.exit unwind label %18

18:                                               ; preds = %17, %13, %6
  %19 = landingpad { ptr, i32 }
          catch ptr null
  %20 = extractvalue { ptr, i32 } %19, 0
  tail call void @__clang_call_terminate(ptr %20) #30
  unreachable

21:                                               ; preds = %2
  br i1 %1, label %22, label %41

22:                                               ; preds = %21
  %23 = and i32 %4, 56
  %or.cond14 = icmp eq i32 %23, 48
  br i1 %or.cond14, label %39, label %24

24:                                               ; preds = %22
  %25 = getelementptr inbounds nuw i8, ptr %0, i64 8
  %26 = load ptr, ptr %25, align 8
  %27 = tail call noundef ptr @_ZN8nanobind6detail12nb_type_nameEP7_object(ptr noundef %26) #29
  %28 = load ptr, ptr @PyExc_RuntimeWarning, align 8
  %29 = invoke i32 (ptr, i64, ptr, ...) @PyErr_WarnFormat(ptr noundef %28, i64 noundef 1, ptr noundef nonnull @.str.35, ptr noundef %27, ptr noundef nonnull @.str.20)
          to label %30 unwind label %36

30:                                               ; preds = %24
  %.not.i15 = icmp eq i32 %29, 0
  br i1 %.not.i15, label %32, label %31

31:                                               ; preds = %30
  invoke void @PyErr_WriteUnraisable(ptr noundef nonnull %0)
          to label %32 unwind label %36

32:                                               ; preds = %31, %30
  %33 = load i64, ptr %27, align 8
  %34 = add nsw i64 %33, -1
  store i64 %34, ptr %27, align 8
  %.not.i.i16 = icmp eq i64 %34, 0
  br i1 %.not.i.i16, label %35, label %_ZN8nanobind6detailL22warn_relinquish_failedEPKcP7_object.exit

35:                                               ; preds = %32
  invoke void @_Py_Dealloc(ptr noundef nonnull %27)
          to label %_ZN8nanobind6detailL22warn_relinquish_failedEPKcP7_object.exit unwind label %36

36:                                               ; preds = %35, %31, %24
  %37 = landingpad { ptr, i32 }
          catch ptr null
  %38 = extractvalue { ptr, i32 } %37, 0
  tail call void @__clang_call_terminate(ptr %38) #30
  unreachable

39:                                               ; preds = %22
  %40 = and i32 %4, -58
  br label %41

41:                                               ; preds = %39, %21
  %42 = phi i32 [ %40, %39 ], [ %4, %21 ]
  %43 = and i32 %42, -4
  %44 = or disjoint i32 %43, 1
  store i32 %44, ptr %3, align 4
  br label %_ZN8nanobind6detailL22warn_relinquish_failedEPKcP7_object.exit

_ZN8nanobind6detailL22warn_relinquish_failedEPKcP7_object.exit: ; preds = %35, %32, %17, %14, %41
  %.0 = phi i1 [ true, %41 ], [ false, %14 ], [ false, %17 ], [ false, %32 ], [ false, %35 ]
  ret i1 %.0
}